; Function Attrs: null_pointer_is_valid sspstrong uwtable
define internal fastcc ptr @ip_fixed_option_header(ptr noundef %0, ptr noundef %1, ptr noundef %2, i32 noundef %3, i32 noundef %4, ptr noundef captures(none) initializes((0, 8)) %5, i32 noundef range(i32 4, 13) %6, i32 noundef %7) unnamed_addr #1 {
  %9 = tail call ptr @proto_tree_add_item(ptr noundef %0, i32 noundef %3, ptr noundef %2, i32 noundef 0, i32 noundef %7, i32 noundef 0)
  store ptr %9, ptr %5, align 8
  %10 = tail call ptr @proto_item_add_subtree(ptr noundef %9, i32 noundef %4)
  %11 = load ptr, ptr %5, align 8
  tail call void (ptr, ptr, ...) @proto_item_append_text(ptr noundef %11, ptr noundef nonnull @.str.600, i32 noundef %6)
  %12 = load i32, ptr @hf_ip_opt_type, align 4
  %13 = tail call ptr @proto_tree_add_item(ptr noundef %10, i32 noundef %12, ptr noundef %2, i32 noundef 0, i32 noundef 1, i32 noundef 0)
  %14 = load i32, ptr @ett_ip_opt_type, align 4
  %15 = tail call ptr @proto_item_add_subtree(ptr noundef %13, i32 noundef %14)
  %16 = load i32, ptr @hf_ip_opt_type_copy, align 4
  %17 = tail call ptr @proto_tree_add_item(ptr noundef %15, i32 noundef %16, ptr noundef %2, i32 noundef 0, i32 noundef 1, i32 noundef 0)
  %18 = load i32, ptr @hf_ip_opt_type_class, align 4
  %19 = tail call ptr @proto_tree_add_item(ptr noundef %15, i32 noundef %18, ptr noundef %2, i32 noundef 0, i32 noundef 1, i32 noundef 0)
  %20 = load i32, ptr @hf_ip_opt_type_number, align 4
  %21 = tail call ptr @proto_tree_add_item(ptr noundef %15, i32 noundef %20, ptr noundef %2, i32 noundef 0, i32 noundef 1, i32 noundef 0)
  %22 = load i32, ptr @hf_ip_opt_len, align 4
  %23 = tail call ptr @proto_tree_add_item(ptr noundef %10, i32 noundef %22, ptr noundef %2, i32 noundef 1, i32 noundef 1, i32 noundef 0)
  %.not = icmp eq i32 %6, %7
  br i1 %.not, label %30, label %24

24:                                               ; preds = %8
  %25 = tail call ptr @find_protocol_by_id(i32 noundef %3)
  %26 = tail call ptr @proto_get_protocol_short_name(ptr noundef %25)
  %27 = icmp eq i32 %7, 1
  %28 = select i1 %27, ptr @.str.589, ptr @.str.595
  %29 = tail call ptr (ptr, ptr, ptr, ptr, ...) @expert_add_info_format(ptr noundef %1, ptr noundef %23, ptr noundef nonnull @ei_ip_opt_len_invalid, ptr noundef nonnull @.str.611, ptr noundef %26, i32 noundef %7, ptr noundef nonnull %28, i32 noundef %6)
  br label %30

30:                                               ; preds = %24, %8
  ret ptr %10
}